target datalayout = "e-m:e-p270:32:32-p271:32:32-p272:64:64-i64:64-i128:128-f80:128-n8:16:32:64-S128"
target triple = "x86_64-pc-linux-gnu"

; Function Attrs: nounwind uwtable
define i32 @GetCodepointNext(ptr noundef %0, ptr noundef %1) #0 {
  %3 = alloca i32, align 4
  %4 = alloca ptr, align 8
  %5 = alloca ptr, align 8
  %6 = alloca ptr, align 8
  %7 = alloca i32, align 4
  %8 = alloca i32, align 4
  store ptr %0, ptr %4, align 8
  store ptr %1, ptr %5, align 8
  call void @llvm.lifetime.start.p0(i64 8, ptr %6) #13
  %9 = load ptr, ptr %4, align 8
  store ptr %9, ptr %6, align 8
  call void @llvm.lifetime.start.p0(i64 4, ptr %7) #13
  store i32 63, ptr %7, align 4
  %10 = load ptr, ptr %5, align 8
  store i32 1, ptr %10, align 4
  %11 = load ptr, ptr %6, align 8
  %12 = getelementptr inbounds i8, ptr %11, i64 0
  %13 = load i8, ptr %12, align 1
  %14 = sext i8 %13 to i32
  %15 = and i32 248, %14
  %16 = icmp eq i32 240, %15
  br i1 %16, label %17, label %71

17:                                               ; preds = %2
  %18 = load ptr, ptr %6, align 8
  %19 = getelementptr inbounds i8, ptr %18, i64 1
  %20 = load i8, ptr %19, align 1
  %21 = sext i8 %20 to i32
  %22 = and i32 %21, 192
  %23 = xor i32 %22, 128
  %24 = icmp ne i32 %23, 0
  br i1 %24, label %41, label %25

25:                                               ; preds = %17
  %26 = load ptr, ptr %6, align 8
  %27 = getelementptr inbounds i8, ptr %26, i64 2
  %28 = load i8, ptr %27, align 1
  %29 = sext i8 %28 to i32
  %30 = and i32 %29, 192
  %31 = xor i32 %30, 128
  %32 = icmp ne i32 %31, 0
  br i1 %32, label %41, label %33

33:                                               ; preds = %25
  %34 = load ptr, ptr %6, align 8
  %35 = getelementptr inbounds i8, ptr %34, i64 3
  %36 = load i8, ptr %35, align 1
  %37 = sext i8 %36 to i32
  %38 = and i32 %37, 192
  %39 = xor i32 %38, 128
  %40 = icmp ne i32 %39, 0
  br i1 %40, label %41, label %43

41:                                               ; preds = %33, %25, %17
  %42 = load i32, ptr %7, align 4
  store i32 %42, ptr %3, align 4
  store i32 1, ptr %8, align 4
  br label %166

43:                                               ; preds = %33
  %44 = load ptr, ptr %6, align 8
  %45 = getelementptr inbounds i8, ptr %44, i64 0
  %46 = load i8, ptr %45, align 1
  %47 = sext i8 %46 to i32
  %48 = and i32 7, %47
  %49 = shl i32 %48, 18
  %50 = load ptr, ptr %6, align 8
  %51 = getelementptr inbounds i8, ptr %50, i64 1
  %52 = load i8, ptr %51, align 1
  %53 = sext i8 %52 to i32
  %54 = and i32 63, %53
  %55 = shl i32 %54, 12
  %56 = or i32 %49, %55
  %57 = load ptr, ptr %6, align 8
  %58 = getelementptr inbounds i8, ptr %57, i64 2
  %59 = load i8, ptr %58, align 1
  %60 = sext i8 %59 to i32
  %61 = and i32 63, %60
  %62 = shl i32 %61, 6
  %63 = or i32 %56, %62
  %64 = load ptr, ptr %6, align 8
  %65 = getelementptr inbounds i8, ptr %64, i64 3
  %66 = load i8, ptr %65, align 1
  %67 = sext i8 %66 to i32
  %68 = and i32 63, %67
  %69 = or i32 %63, %68
  store i32 %69, ptr %7, align 4
  %70 = load ptr, ptr %5, align 8
  store i32 4, ptr %70, align 4
  br label %164

71:                                               ; preds = %2
  %72 = load ptr, ptr %6, align 8
  %73 = getelementptr inbounds i8, ptr %72, i64 0
  %74 = load i8, ptr %73, align 1
  %75 = sext i8 %74 to i32
  %76 = and i32 240, %75
  %77 = icmp eq i32 224, %76
  br i1 %77, label %78, label %117

78:                                               ; preds = %71
  %79 = load ptr, ptr %6, align 8
  %80 = getelementptr inbounds i8, ptr %79, i64 1
  %81 = load i8, ptr %80, align 1
  %82 = sext i8 %81 to i32
  %83 = and i32 %82, 192
  %84 = xor i32 %83, 128
  %85 = icmp ne i32 %84, 0
  br i1 %85, label %94, label %86

86:                                               ; preds = %78
  %87 = load ptr, ptr %6, align 8
  %88 = getelementptr inbounds i8, ptr %87, i64 2
  %89 = load i8, ptr %88, align 1
  %90 = sext i8 %89 to i32
  %91 = and i32 %90, 192
  %92 = xor i32 %91, 128
  %93 = icmp ne i32 %92, 0
  br i1 %93, label %94, label %96

94:                                               ; preds = %86, %78
  %95 = load i32, ptr %7, align 4
  store i32 %95, ptr %3, align 4
  store i32 1, ptr %8, align 4
  br label %166

96:                                               ; preds = %86
  %97 = load ptr, ptr %6, align 8
  %98 = getelementptr inbounds i8, ptr %97, i64 0
  %99 = load i8, ptr %98, align 1
  %100 = sext i8 %99 to i32
  %101 = and i32 15, %100
  %102 = shl i32 %101, 12
  %103 = load ptr, ptr %6, align 8
  %104 = getelementptr inbounds i8, ptr %103, i64 1
  %105 = load i8, ptr %104, align 1
  %106 = sext i8 %105 to i32
  %107 = and i32 63, %106
  %108 = shl i32 %107, 6
  %109 = or i32 %102, %108
  %110 = load ptr, ptr %6, align 8
  %111 = getelementptr inbounds i8, ptr %110, i64 2
  %112 = load i8, ptr %111, align 1
  %113 = sext i8 %112 to i32
  %114 = and i32 63, %113
  %115 = or i32 %109, %114
  store i32 %115, ptr %7, align 4
  %116 = load ptr, ptr %5, align 8
  store i32 3, ptr %116, align 4
  br label %163

117:                                              ; preds = %71
  %118 = load ptr, ptr %6, align 8
  %119 = getelementptr inbounds i8, ptr %118, i64 0
  %120 = load i8, ptr %119, align 1
  %121 = sext i8 %120 to i32
  %122 = and i32 224, %121
  %123 = icmp eq i32 192, %122
  br i1 %123, label %124, label %148

124:                                              ; preds = %117
  %125 = load ptr, ptr %6, align 8
  %126 = getelementptr inbounds i8, ptr %125, i64 1
  %127 = load i8, ptr %126, align 1
  %128 = sext i8 %127 to i32
  %129 = and i32 %128, 192
  %130 = xor i32 %129, 128
  %131 = icmp ne i32 %130, 0
  br i1 %131, label %132, label %134

132:                                              ; preds = %124
  %133 = load i32, ptr %7, align 4
  store i32 %133, ptr %3, align 4
  store i32 1, ptr %8, align 4
  br label %166

134:                                              ; preds = %124
  %135 = load ptr, ptr %6, align 8
  %136 = getelementptr inbounds i8, ptr %135, i64 0
  %137 = load i8, ptr %136, align 1
  %138 = sext i8 %137 to i32
  %139 = and i32 31, %138
  %140 = shl i32 %139, 6
  %141 = load ptr, ptr %6, align 8
  %142 = getelementptr inbounds i8, ptr %141, i64 1
  %143 = load i8, ptr %142, align 1
  %144 = sext i8 %143 to i32
  %145 = and i32 63, %144
  %146 = or i32 %140, %145
  store i32 %146, ptr %7, align 4
  %147 = load ptr, ptr %5, align 8
  store i32 2, ptr %147, align 4
  br label %162

148:                                              ; preds = %117
  %149 = load ptr, ptr %6, align 8
  %150 = getelementptr inbounds i8, ptr %149, i64 0
  %151 = load i8, ptr %150, align 1
  %152 = sext i8 %151 to i32
  %153 = and i32 128, %152
  %154 = icmp eq i32 0, %153
  br i1 %154, label %155, label %161

155:                                              ; preds = %148
  %156 = load ptr, ptr %6, align 8
  %157 = getelementptr inbounds i8, ptr %156, i64 0
  %158 = load i8, ptr %157, align 1
  %159 = sext i8 %158 to i32
  store i32 %159, ptr %7, align 4
  %160 = load ptr, ptr %5, align 8
  store i32 1, ptr %160, align 4
  br label %161

161:                                              ; preds = %155, %148
  br label %162

162:                                              ; preds = %161, %134
  br label %163

163:                                              ; preds = %162, %96
  br label %164

164:                                              ; preds = %163, %43
  %165 = load i32, ptr %7, align 4
  store i32 %165, ptr %3, align 4
  store i32 1, ptr %8, align 4
  br label %166

166:                                              ; preds = %164, %132, %94, %41
  call void @llvm.lifetime.end.p0(i64 4, ptr %7) #13
  call void @llvm.lifetime.end.p0(i64 8, ptr %6) #13
  %167 = load i32, ptr %3, align 4
  ret i32 %167
}