; Function Attrs: mustprogress nofree norecurse nosync nounwind willreturn memory(argmem: readwrite) uwtable
define range(i32 -128, 2097152) i32 @GetCodepointNext(ptr noundef readonly captures(none) %0, ptr noundef writeonly captures(none) initializes((0, 4)) %1) local_unnamed_addr #0 {
  store i32 1, ptr %1, align 4
  %3 = load i8, ptr %0, align 1
  %4 = sext i8 %3 to i32
  %5 = and i32 %4, 248
  %6 = icmp eq i32 %5, 240
  br i1 %6, label %7, label %33

7:                                                ; preds = %2
  %8 = getelementptr inbounds nuw i8, ptr %0, i64 1
  %9 = load i8, ptr %8, align 1
  %10 = sext i8 %9 to i32
  %11 = and i32 %10, 192
  %.not33 = icmp eq i32 %11, 128
  br i1 %.not33, label %12, label %69

12:                                               ; preds = %7
  %13 = getelementptr inbounds nuw i8, ptr %0, i64 2
  %14 = load i8, ptr %13, align 1
  %15 = sext i8 %14 to i32
  %16 = and i32 %15, 192
  %.not34 = icmp eq i32 %16, 128
  br i1 %.not34, label %17, label %69

17:                                               ; preds = %12
  %18 = getelementptr inbounds nuw i8, ptr %0, i64 3
  %19 = load i8, ptr %18, align 1
  %20 = zext i8 %19 to i32
  %21 = and i32 %20, 192
  %.not35 = icmp eq i32 %21, 128
  br i1 %.not35, label %22, label %69

22:                                               ; preds = %17
  %23 = shl nsw i32 %4, 18
  %24 = and i32 %23, 1835008
  %25 = shl nsw i32 %10, 12
  %26 = and i32 %25, 258048
  %27 = or disjoint i32 %26, %24
  %28 = shl nsw i32 %15, 6
  %29 = and i32 %28, 4032
  %30 = or disjoint i32 %27, %29
  %31 = and i32 %20, 63
  %32 = or disjoint i32 %30, %31
  br label %.sink.split

33:                                               ; preds = %2
  %34 = and i32 %4, 240
  %35 = icmp eq i32 %34, 224
  br i1 %35, label %36, label %54

36:                                               ; preds = %33
  %37 = getelementptr inbounds nuw i8, ptr %0, i64 1
  %38 = load i8, ptr %37, align 1
  %39 = sext i8 %38 to i32
  %40 = and i32 %39, 192
  %.not31 = icmp eq i32 %40, 128
  br i1 %.not31, label %41, label %69

41:                                               ; preds = %36
  %42 = getelementptr inbounds nuw i8, ptr %0, i64 2
  %43 = load i8, ptr %42, align 1
  %44 = zext i8 %43 to i32
  %45 = and i32 %44, 192
  %.not32 = icmp eq i32 %45, 128
  br i1 %.not32, label %46, label %69

46:                                               ; preds = %41
  %47 = shl nsw i32 %4, 12
  %48 = and i32 %47, 61440
  %49 = shl nsw i32 %39, 6
  %50 = and i32 %49, 4032
  %51 = or disjoint i32 %50, %48
  %52 = and i32 %44, 63
  %53 = or disjoint i32 %51, %52
  br label %.sink.split

54:                                               ; preds = %33
  %55 = and i32 %4, 224
  %56 = icmp eq i32 %55, 192
  br i1 %56, label %57, label %67

57:                                               ; preds = %54
  %58 = getelementptr inbounds nuw i8, ptr %0, i64 1
  %59 = load i8, ptr %58, align 1
  %60 = zext i8 %59 to i32
  %61 = and i32 %60, 192
  %.not = icmp eq i32 %61, 128
  br i1 %.not, label %62, label %69

62:                                               ; preds = %57
  %63 = shl nsw i32 %4, 6
  %64 = and i32 %63, 1984
  %65 = and i32 %60, 63
  %66 = or disjoint i32 %65, %64
  br label %.sink.split

67:                                               ; preds = %54
  %68 = icmp sgt i8 %3, -1
  %spec.select = select i1 %68, i32 %4, i32 63
  br label %69

.sink.split:                                      ; preds = %46, %62, %22
  %.sink = phi i32 [ 4, %22 ], [ 2, %62 ], [ 3, %46 ]
  %.030.ph = phi i32 [ %32, %22 ], [ %66, %62 ], [ %53, %46 ]
  store i32 %.sink, ptr %1, align 4
  br label %69

69:                                               ; preds = %67, %.sink.split, %57, %36, %41, %7, %12, %17
  %.030 = phi i32 [ 63, %17 ], [ 63, %12 ], [ 63, %7 ], [ 63, %41 ], [ 63, %36 ], [ 63, %57 ], [ %spec.select, %67 ], [ %.030.ph, %.sink.split ]
  ret i32 %.030
}